target datalayout = "e-m:e-p270:32:32-p271:32:32-p272:64:64-i64:64-i128:128-f80:128-n8:16:32:64-S128"
target triple = "x86_64-pc-linux-gnu"

; Function Attrs: nounwind sspstrong uwtable
define dso_local void @tcg_gen_call7(ptr noundef %0, ptr noundef %1, ptr noundef %2, ptr noundef %3, ptr noundef %4, ptr noundef %5, ptr noundef %6, ptr noundef %7, ptr noundef %8, ptr noundef %9) #0 {
  %11 = alloca ptr, align 8
  %12 = alloca ptr, align 8
  %13 = alloca ptr, align 8
  %14 = alloca ptr, align 8
  %15 = alloca ptr, align 8
  %16 = alloca ptr, align 8
  %17 = alloca ptr, align 8
  %18 = alloca ptr, align 8
  %19 = alloca ptr, align 8
  %20 = alloca ptr, align 8
  %21 = alloca [7 x ptr], align 16
  store ptr %0, ptr %11, align 8
  store ptr %1, ptr %12, align 8
  store ptr %2, ptr %13, align 8
  store ptr %3, ptr %14, align 8
  store ptr %4, ptr %15, align 8
  store ptr %5, ptr %16, align 8
  store ptr %6, ptr %17, align 8
  store ptr %7, ptr %18, align 8
  store ptr %8, ptr %19, align 8
  store ptr %9, ptr %20, align 8
  call void @llvm.lifetime.start.p0(i64 56, ptr %21) #19
  call void @llvm.memset.p0.i64(ptr align 16 %21, i8 0, i64 56, i1 false), !annotation !4
  %22 = load ptr, ptr %14, align 8
  store ptr %22, ptr %21, align 8
  %23 = getelementptr inbounds ptr, ptr %21, i64 1
  %24 = load ptr, ptr %15, align 8
  store ptr %24, ptr %23, align 8
  %25 = getelementptr inbounds ptr, ptr %21, i64 2
  %26 = load ptr, ptr %16, align 8
  store ptr %26, ptr %25, align 8
  %27 = getelementptr inbounds ptr, ptr %21, i64 3
  %28 = load ptr, ptr %17, align 8
  store ptr %28, ptr %27, align 8
  %29 = getelementptr inbounds ptr, ptr %21, i64 4
  %30 = load ptr, ptr %18, align 8
  store ptr %30, ptr %29, align 8
  %31 = getelementptr inbounds ptr, ptr %21, i64 5
  %32 = load ptr, ptr %19, align 8
  store ptr %32, ptr %31, align 8
  %33 = getelementptr inbounds ptr, ptr %21, i64 6
  %34 = load ptr, ptr %20, align 8
  store ptr %34, ptr %33, align 8
  %35 = load ptr, ptr %11, align 8
  %36 = load ptr, ptr %12, align 8
  %37 = load ptr, ptr %13, align 8
  %38 = getelementptr inbounds [7 x ptr], ptr %21, i64 0, i64 0
  call void @tcg_gen_callN(ptr noundef %35, ptr noundef %36, ptr noundef %37, ptr noundef %38)
  call void @llvm.lifetime.end.p0(i64 56, ptr %21) #19
  ret void
}