; Function Attrs: nounwind sspstrong uwtable
define dso_local void @tcg_gen_call7(ptr noundef %0, ptr noundef %1, ptr noundef %2, ptr noundef %3, ptr noundef %4, ptr noundef %5, ptr noundef %6, ptr noundef %7, ptr noundef %8, ptr noundef %9) local_unnamed_addr #0 {
  %11 = alloca [7 x ptr], align 16
  call void @llvm.lifetime.start.p0(i64 56, ptr nonnull %11) #30
  store ptr %3, ptr %11, align 16
  %12 = getelementptr inbounds nuw i8, ptr %11, i64 8
  store ptr %4, ptr %12, align 8
  %13 = getelementptr inbounds nuw i8, ptr %11, i64 16
  store ptr %5, ptr %13, align 16
  %14 = getelementptr inbounds nuw i8, ptr %11, i64 24
  store ptr %6, ptr %14, align 8
  %15 = getelementptr inbounds nuw i8, ptr %11, i64 32
  store ptr %7, ptr %15, align 16
  %16 = getelementptr inbounds nuw i8, ptr %11, i64 40
  store ptr %8, ptr %16, align 8
  %17 = getelementptr inbounds nuw i8, ptr %11, i64 48
  store ptr %9, ptr %17, align 16
  call fastcc void @tcg_gen_callN(ptr noundef %0, ptr noundef %1, ptr noundef %2, ptr noundef nonnull %11)
  call void @llvm.lifetime.end.p0(i64 56, ptr nonnull %11) #30
  ret void
}